ccopy_reg
_reconstructor
p1
(cnetworkx.classes.digraph
DiGraph
p2
c__builtin__
object
p3
NtRp4
(dp5
S'node'
p6
(dp7
S'Canada'
p8
(dp9
sS'India'
p10
(dp11
sS'Italy'
p12
(dp13
sS'Peru'
p14
(dp15
sS'Nicaragua'
p16
(dp17
sS'Kuwait'
p18
(dp19
sS'Panama'
p20
(dp21
sS'Lebanon'
p22
(dp23
sS'Saint Kitts and Nevis'
p24
(dp25
sS'Grenada'
p26
(dp27
sS'Timor-Leste'
p28
(dp29
sS'Sweden'
p30
(dp31
sS'Cyprus'
p32
(dp33
sS'Gabon'
p34
(dp35
sS'Ireland'
p36
(dp37
sS'Thailand'
p38
(dp39
sS'Kiribati'
p40
(dp41
sS'Palau'
p42
(dp43
sS'Fiji'
p44
(dp45
sS'Guinea'
p46
(dp47
ssS'graph'
p48
(dp49
sS'succ'
p50
(dp51
g8
(dp52
g10
(dp53
S'weight'
p54
I1
ssg12
(dp55
g54
I1
ssg16
(dp56
g54
I1
ssg20
(dp57
g54
I1
ssg22
(dp58
g54
I1
ssg24
(dp59
g54
I1
ssg26
(dp60
g54
I1
ssg32
(dp61
g54
I1
ssg34
(dp62
g54
I1
ssg14
(dp63
g54
I1
ssg38
(dp64
g54
I1
ssg40
(dp65
g54
I1
ssg44
(dp66
g54
I1
ssg46
(dp67
g54
I1
sssg10
(dp68
g8
(dp69
g54
I1
ssg12
(dp70
g54
I1
ssg32
(dp71
g54
I1
ssg24
(dp72
g54
I1
ssg26
(dp73
g54
I1
ssg38
(dp74
g54
I1
ssg40
(dp75
g54
I1
ssg44
(dp76
g54
I1
sssg12
(dp77
g8
(dp78
g54
I1
ssg10
(dp79
g54
I1
ssg22
(dp80
g54
I1
ssg30
(dp81
g54
I1
ssg14
(dp82
g54
I1
ssg38
(dp83
g54
I1
ssg32
(dp84
g54
I1
sssg14
(dp85
g8
(dp86
g54
I1
ssg26
(dp87
g54
I1
ssg20
(dp88
g54
I1
ssg16
(dp89
g54
I1
ssg24
(dp90
g54
I1
sssg16
(dp91
g8
(dp92
g54
I1
ssg20
(dp93
g54
I1
ssg22
(dp94
g54
I1
ssg24
(dp95
g54
I1
ssg14
(dp96
g54
I1
ssg26
(dp97
g54
I1
sssg18
(dp98
g38
(dp99
g54
I1
ssg22
(dp100
g54
I1
ssg32
(dp101
g54
I1
ssg10
(dp102
g54
I1
sssg20
(dp103
g8
(dp104
g54
I1
ssg10
(dp105
g54
I1
ssg16
(dp106
g54
I1
ssg24
(dp107
g54
I1
ssg26
(dp108
g54
I1
sssg22
(dp109
g8
(dp110
g54
I1
ssg12
(dp111
g54
I1
ssg18
(dp112
g54
I1
ssg10
(dp113
g54
I1
ssg34
(dp114
g54
I1
ssg46
(dp115
g54
I1
ssg38
(dp116
g54
I1
ssg32
(dp117
g54
I1
sssg24
(dp118
g8
(dp119
g54
I1
ssg42
(dp120
g54
I1
ssg44
(dp121
g54
I1
ssg20
(dp122
g54
I1
ssg10
(dp123
g54
I1
ssg32
(dp124
g54
I1
ssg26
(dp125
g54
I1
ssg40
(dp126
g54
I1
ssg16
(dp127
g54
I1
sssg26
(dp128
g8
(dp129
g54
I1
ssg42
(dp130
g54
I1
ssg44
(dp131
g54
I1
ssg20
(dp132
g54
I1
ssg10
(dp133
g54
I1
ssg24
(dp134
g54
I1
ssg32
(dp135
g54
I1
ssg40
(dp136
g54
I1
ssg16
(dp137
g54
I1
sssg28
(dp138
g8
(dp139
g54
I1
ssg10
(dp140
g54
I1
ssg12
(dp141
g54
I1
ssg18
(dp142
g54
I1
ssg22
(dp143
g54
I1
ssg40
(dp144
g54
I1
ssg30
(dp145
g54
I1
ssg32
(dp146
g54
I1
ssg38
(dp147
g54
I1
ssg42
(dp148
g54
I1
ssg44
(dp149
g54
I1
sssg30
(dp150
g32
(dp151
g54
I1
ssg12
(dp152
g54
I1
sssg32
(dp153
g10
(dp154
g54
I1
ssg12
(dp155
g54
I1
ssg18
(dp156
g54
I1
ssg22
(dp157
g54
I1
ssg24
(dp158
g54
I1
ssg26
(dp159
g54
I1
ssg30
(dp160
g54
I1
ssg40
(dp161
g54
I1
ssg38
(dp162
g54
I1
ssg44
(dp163
g54
I1
sssg34
(dp164
g8
(dp165
g54
I1
ssg12
(dp166
g54
I1
ssg18
(dp167
g54
I1
ssg22
(dp168
g54
I1
ssg46
(dp169
g54
I1
ssg38
(dp170
g54
I1
ssg32
(dp171
g54
I1
sssg36
(dp172
sg38
(dp173
g8
(dp174
g54
I1
ssg18
(dp175
g54
I1
ssg44
(dp176
g54
I1
ssg14
(dp177
g54
I1
ssg10
(dp178
g54
I1
sssg40
(dp179
g8
(dp180
g54
I1
ssg12
(dp181
g54
I1
ssg32
(dp182
g54
I1
ssg10
(dp183
g54
I1
ssg24
(dp184
g54
I1
ssg26
(dp185
g54
I1
ssg38
(dp186
g54
I1
ssg42
(dp187
g54
I1
ssg44
(dp188
g54
I1
sssg42
(dp189
g8
(dp190
g54
I1
ssg12
(dp191
g54
I1
ssg10
(dp192
g54
I1
ssg38
(dp193
g54
I1
ssg40
(dp194
g54
I1
ssg44
(dp195
g54
I1
sssg44
(dp196
g8
(dp197
g54
I1
ssg42
(dp198
g54
I1
ssg12
(dp199
g54
I1
ssg10
(dp200
g54
I1
ssg24
(dp201
g54
I1
ssg26
(dp202
g54
I1
ssg38
(dp203
g54
I1
ssg40
(dp204
g54
I1
ssg32
(dp205
g54
I1
sssg46
(dp206
g8
(dp207
g54
I1
ssg12
(dp208
g54
I1
ssg18
(dp209
g54
I1
ssg22
(dp210
g54
I1
ssg34
(dp211
g54
I1
ssg38
(dp212
g54
I1
ssg32
(dp213
g54
I1
ssssS'edge'
p214
g51
sS'pred'
p215
(dp216
g8
(dp217
g10
g69
sg12
g78
sg16
g92
sg20
g104
sg22
g110
sg24
g119
sg26
g129
sg28
g139
sg34
g165
sg14
g86
sg38
g174
sg40
g180
sg42
g190
sg44
g197
sg46
g207
ssg10
(dp218
g8
g53
sg12
g79
sg18
g102
sg20
g105
sg22
g113
sg24
g123
sg26
g133
sg32
g154
sg28
g140
sg38
g178
sg40
g183
sg42
g192
sg44
g200
ssg12
(dp219
g8
g55
sg42
g191
sg10
g70
sg22
g111
sg32
g155
sg30
g152
sg34
g166
sg46
g208
sg40
g181
sg28
g141
sg44
g199
ssg14
(dp220
g8
g63
sg38
g177
sg12
g82
sg16
g96
ssg16
(dp221
g8
g56
sg26
g137
sg20
g106
sg24
g127
sg14
g89
ssg18
(dp222
g46
g209
sg22
g112
sg28
g142
sg38
g175
sg34
g167
sg32
g156
ssg20
(dp223
g8
g57
sg26
g132
sg16
g93
sg24
g122
sg14
g88
ssg22
(dp224
g8
g58
sg12
g80
sg18
g100
sg32
g157
sg28
g143
sg46
g210
sg34
g168
sg16
g94
ssg24
(dp225
g8
g59
sg16
g95
sg20
g107
sg10
g72
sg32
g158
sg14
g90
sg26
g134
sg40
g184
sg44
g201
ssg26
(dp226
g8
g60
sg16
g97
sg20
g108
sg10
g73
sg24
g125
sg32
g159
sg14
g87
sg40
g185
sg44
g202
ssg28
(dp227
sg30
(dp228
g28
g145
sg12
g81
sg32
g160
ssg32
(dp229
g8
g61
sg10
g71
sg12
g84
sg18
g101
sg22
g117
sg24
g124
sg26
g135
sg30
g151
sg34
g171
sg46
g213
sg40
g182
sg28
g146
sg44
g205
ssg34
(dp230
g8
g62
sg46
g211
sg22
g114
ssg36
(dp231
sg38
(dp232
g8
g64
sg10
g74
sg12
g83
sg18
g99
sg22
g116
sg32
g162
sg28
g147
sg34
g170
sg46
g212
sg40
g186
sg42
g193
sg44
g203
ssg40
(dp233
g8
g65
sg42
g194
sg32
g161
sg10
g75
sg24
g126
sg28
g144
sg26
g136
sg44
g204
ssg42
(dp234
g28
g148
sg44
g198
sg24
g120
sg26
g130
sg40
g187
ssg44
(dp235
g8
g66
sg42
g195
sg10
g76
sg24
g121
sg26
g131
sg28
g149
sg38
g176
sg40
g188
sg32
g163
ssg46
(dp236
g8
g67
sg22
g115
sg34
g169
sssS'adj'
p237
g51
sb.