ccopy_reg
_reconstructor
p1
(cnetworkx.classes.digraph
DiGraph
p2
c__builtin__
object
p3
NtRp4
(dp5
S'node'
p6
(dp7
S'East Timor'
p8
(dp9
sS'Burma'
p10
(dp11
sS'Morocco'
p12
(dp13
sS'Italy'
p14
(dp15
sS'Malta'
p16
(dp17
sS'Uruguay'
p18
(dp19
sS'Mongolia'
p20
(dp21
sS'Bahamas'
p22
(dp23
sS'Sri Lanka'
p24
(dp25
sS'Austria'
p26
(dp27
sS'Holy See'
p28
(dp29
sS'South Sudan'
p30
(dp31
sS'Uganda'
p32
(dp33
sS'Bahrain'
p34
(dp35
sS'Burundi'
p36
(dp37
sS'Syria'
p38
(dp39
sS'Nigeria'
p40
(dp41
sS'Bulgaria'
p42
(dp43
sS'Venezuela'
p44
(dp45
sS'Benin'
p46
(dp47
ssS'graph'
p48
(dp49
sS'succ'
p50
(dp51
g8
(dp52
g34
(dp53
S'weight'
p54
I1
ssg38
(dp55
g54
I1
ssg14
(dp56
g54
I1
ssg24
(dp57
g54
I1
ssg20
(dp58
g54
I1
sssg10
(dp59
g8
(dp60
g54
I1
ssg38
(dp61
g54
I1
ssg24
(dp62
g54
I1
ssg20
(dp63
g54
I1
ssg34
(dp64
g54
I1
sssg12
(dp65
g34
(dp66
g54
I1
ssg14
(dp67
g54
I1
ssg18
(dp68
g54
I1
ssg16
(dp69
g54
I1
ssg26
(dp70
g54
I1
ssg30
(dp71
g54
I1
ssg32
(dp72
g54
I1
ssg36
(dp73
g54
I1
ssg38
(dp74
g54
I1
ssg40
(dp75
g54
I1
ssg42
(dp76
g54
I1
ssg44
(dp77
g54
I1
ssg46
(dp78
g54
I1
sssg14
(dp79
g16
(dp80
g54
I1
ssg12
(dp81
g54
I1
ssg26
(dp82
g54
I1
ssg20
(dp83
g54
I1
ssg38
(dp84
g54
I1
ssg42
(dp85
g54
I1
ssg28
(dp86
g54
I1
sssg16
(dp87
g8
(dp88
g54
I1
ssg14
(dp89
g54
I1
ssg20
(dp90
g54
I1
ssg22
(dp91
g54
I1
ssg12
(dp92
g54
I1
ssg26
(dp93
g54
I1
ssg30
(dp94
g54
I1
ssg32
(dp95
g54
I1
ssg24
(dp96
g54
I1
ssg38
(dp97
g54
I1
ssg40
(dp98
g54
I1
ssg28
(dp99
g54
I1
ssg42
(dp100
g54
I1
sssg18
(dp101
g44
(dp102
g54
I1
sssg20
(dp103
g8
(dp104
g54
I1
ssg38
(dp105
g54
I1
ssg24
(dp106
g54
I1
ssg34
(dp107
g54
I1
sssg22
(dp108
g16
(dp109
g54
I1
ssg30
(dp110
g54
I1
ssg32
(dp111
g54
I1
ssg24
(dp112
g54
I1
ssg40
(dp113
g54
I1
ssg44
(dp114
g54
I1
sssg24
(dp115
g8
(dp116
g54
I1
ssg10
(dp117
g54
I1
ssg16
(dp118
g54
I1
ssg20
(dp119
g54
I1
ssg32
(dp120
g54
I1
ssg34
(dp121
g54
I1
ssg38
(dp122
g54
I1
ssg40
(dp123
g54
I1
ssg44
(dp124
g54
I1
sssg26
(dp125
g28
(dp126
g54
I1
ssg14
(dp127
g54
I1
ssg16
(dp128
g54
I1
ssg42
(dp129
g54
I1
sssg28
(dp130
g26
(dp131
g54
I1
ssg14
(dp132
g54
I1
ssg16
(dp133
g54
I1
ssg42
(dp134
g54
I1
sssg30
(dp135
g14
(dp136
g54
I1
ssg12
(dp137
g54
I1
ssg32
(dp138
g54
I1
ssg36
(dp139
g54
I1
ssg40
(dp140
g54
I1
ssg46
(dp141
g54
I1
sssg32
(dp142
g34
(dp143
g54
I1
ssg14
(dp144
g54
I1
ssg12
(dp145
g54
I1
ssg16
(dp146
g54
I1
ssg24
(dp147
g54
I1
ssg30
(dp148
g54
I1
ssg36
(dp149
g54
I1
ssg38
(dp150
g54
I1
ssg40
(dp151
g54
I1
ssg46
(dp152
g54
I1
sssg34
(dp153
g8
(dp154
g54
I1
ssg20
(dp155
g54
I1
ssg12
(dp156
g54
I1
ssg30
(dp157
g54
I1
ssg32
(dp158
g54
I1
ssg24
(dp159
g54
I1
ssg38
(dp160
g54
I1
ssg40
(dp161
g54
I1
ssg44
(dp162
g54
I1
ssg46
(dp163
g54
I1
sssg36
(dp164
g14
(dp165
g54
I1
ssg18
(dp166
g54
I1
ssg12
(dp167
g54
I1
ssg26
(dp168
g54
I1
ssg30
(dp169
g54
I1
ssg32
(dp170
g54
I1
ssg40
(dp171
g54
I1
ssg42
(dp172
g54
I1
ssg46
(dp173
g54
I1
sssg38
(dp174
g8
(dp175
g54
I1
ssg34
(dp176
g54
I1
ssg14
(dp177
g54
I1
ssg16
(dp178
g54
I1
ssg20
(dp179
g54
I1
ssg12
(dp180
g54
I1
ssg30
(dp181
g54
I1
ssg32
(dp182
g54
I1
ssg24
(dp183
g54
I1
ssg40
(dp184
g54
I1
ssg44
(dp185
g54
I1
ssg46
(dp186
g54
I1
sssg40
(dp187
g34
(dp188
g54
I1
ssg14
(dp189
g54
I1
ssg12
(dp190
g54
I1
ssg16
(dp191
g54
I1
ssg24
(dp192
g54
I1
ssg30
(dp193
g54
I1
ssg32
(dp194
g54
I1
ssg36
(dp195
g54
I1
ssg38
(dp196
g54
I1
ssg44
(dp197
g54
I1
ssg46
(dp198
g54
I1
sssg42
(dp199
g14
(dp200
g54
I1
ssg18
(dp201
g54
I1
ssg16
(dp202
g54
I1
ssg12
(dp203
g54
I1
ssg26
(dp204
g54
I1
ssg36
(dp205
g54
I1
ssg46
(dp206
g54
I1
sssg44
(dp207
g34
(dp208
g54
I1
ssg18
(dp209
g54
I1
ssg12
(dp210
g54
I1
ssg30
(dp211
g54
I1
ssg24
(dp212
g54
I1
ssg38
(dp213
g54
I1
ssg40
(dp214
g54
I1
sssg46
(dp215
g34
(dp216
g54
I1
ssg14
(dp217
g54
I1
ssg18
(dp218
g54
I1
ssg12
(dp219
g54
I1
ssg26
(dp220
g54
I1
ssg30
(dp221
g54
I1
ssg32
(dp222
g54
I1
ssg36
(dp223
g54
I1
ssg38
(dp224
g54
I1
ssg40
(dp225
g54
I1
ssg42
(dp226
g54
I1
ssssS'edge'
p227
g51
sS'pred'
p228
(dp229
g8
(dp230
g10
g60
sg34
g154
sg16
g88
sg20
g104
sg24
g116
sg38
g175
ssg10
(dp231
g24
g117
ssg12
(dp232
g34
g156
sg14
g81
sg16
g92
sg30
g137
sg32
g145
sg36
g167
sg38
g180
sg40
g190
sg42
g203
sg44
g210
sg46
g219
ssg14
(dp233
g8
g56
sg16
g89
sg12
g67
sg26
g127
sg28
g132
sg30
g136
sg32
g144
sg36
g165
sg38
g177
sg40
g189
sg42
g200
sg46
g217
ssg16
(dp234
g14
g80
sg22
g109
sg12
g69
sg26
g128
sg32
g146
sg24
g118
sg38
g178
sg40
g191
sg28
g133
sg42
g202
ssg18
(dp235
g36
g166
sg12
g68
sg42
g201
sg44
g209
sg46
g218
ssg20
(dp236
g8
g58
sg10
g63
sg14
g83
sg16
g90
sg34
g155
sg24
g119
sg38
g179
ssg22
(dp237
g16
g91
ssg24
(dp238
g8
g57
sg10
g62
sg16
g96
sg22
g112
sg20
g106
sg32
g147
sg34
g159
sg38
g183
sg40
g192
sg44
g212
ssg26
(dp239
g14
g82
sg16
g93
sg12
g70
sg36
g168
sg42
g204
sg46
g220
sg28
g131
ssg28
(dp240
g26
g126
sg14
g86
sg16
g99
ssg30
(dp241
g34
g157
sg16
g94
sg22
g110
sg12
g71
sg32
g148
sg36
g169
sg38
g181
sg40
g193
sg44
g211
sg46
g221
ssg32
(dp242
g34
g158
sg12
g72
sg16
g95
sg22
g111
sg24
g120
sg30
g138
sg36
g170
sg38
g182
sg40
g194
sg46
g222
ssg34
(dp243
g8
g53
sg10
g64
sg20
g107
sg12
g66
sg32
g143
sg24
g121
sg38
g176
sg40
g188
sg44
g208
sg46
g216
ssg36
(dp244
g12
g73
sg30
g139
sg32
g149
sg40
g195
sg46
g223
sg42
g205
ssg38
(dp245
g8
g55
sg10
g61
sg14
g84
sg16
g97
sg12
g74
sg20
g105
sg32
g150
sg34
g160
sg24
g122
sg40
g196
sg44
g213
sg46
g224
ssg40
(dp246
g34
g161
sg12
g75
sg16
g98
sg22
g113
sg24
g123
sg30
g140
sg32
g151
sg36
g171
sg38
g184
sg44
g214
sg46
g225
ssg42
(dp247
g14
g85
sg16
g100
sg12
g76
sg26
g129
sg36
g172
sg46
g226
sg28
g134
ssg44
(dp248
g34
g162
sg18
g102
sg22
g114
sg12
g77
sg24
g124
sg38
g185
sg40
g197
ssg46
(dp249
g34
g163
sg12
g78
sg30
g141
sg32
g152
sg36
g173
sg38
g186
sg40
g198
sg42
g206
sssS'adj'
p250
g51
sb.